target datalayout = "e-m:e-p270:32:32-p271:32:32-p272:64:64-i64:64-i128:128-f80:128-n8:16:32:64-S128"
target triple = "x86_64-pc-linux-gnu"

%struct.NarrowPtrStruct = type { ptr, i32, i8 }
%"class.AccessInternal::OopLoadAtProxy" = type { ptr, i64 }

@_ZN28java_lang_Thread_FieldHolder21_thread_status_offsetE = hidden global i32 0, align 4
@_ZN16java_lang_Thread14_holder_offsetE = hidden global i32 0, align 4
@UseCompressedOops = external global i8, align 1
@_ZN14CompressedOops11_narrow_oopE = external global %struct.NarrowPtrStruct, align 8
@_ZN14AccessInternal15RuntimeDispatchILm286790EP7oopDescLNS_11BarrierTypeE3EE13_load_at_funcE = linkonce_odr hidden global ptr @_ZN14AccessInternal15RuntimeDispatchILm286790EP7oopDescLNS_11BarrierTypeE3EE12load_at_initES2_l, comdat, align 8

; Function Attrs: mustprogress nounwind uwtable
define linkonce_odr hidden noundef ptr @_Z11cast_to_oopImEP7oopDescT_(i64 noundef %0) #1 comdat {
  %2 = alloca i64, align 8
  store i64 %0, ptr %2, align 8
  %3 = load i64, ptr %2, align 8
  %4 = inttoptr i64 %3 to ptr
  ret ptr %4
}

; Function Attrs: mustprogress nounwind uwtable
define linkonce_odr hidden noundef i32 @_ZN14CompressedOops5shiftEv() #1 comdat align 2 {
  %1 = load i32, ptr getelementptr inbounds (%struct.NarrowPtrStruct, ptr @_ZN14CompressedOops11_narrow_oopE, i32 0, i32 1), align 8
  ret i32 %1
}

; Function Attrs: mustprogress nounwind uwtable
define linkonce_odr hidden noundef ptr @_ZN14CompressedOops4baseEv() #1 comdat align 2 {
  %1 = load ptr, ptr @_ZN14CompressedOops11_narrow_oopE, align 8
  ret ptr %1
}

; Function Attrs: mustprogress nounwind uwtable
define linkonce_odr hidden noundef ptr @_ZN14CompressedOops10decode_rawE9narrowOop(i32 noundef %0) #1 comdat align 2 {
  %2 = alloca i32, align 4
  store i32 %0, ptr %2, align 4
  %3 = call noundef ptr @_ZN14CompressedOops4baseEv()
  %4 = ptrtoint ptr %3 to i64
  %5 = load i32, ptr %2, align 4
  %6 = zext i32 %5 to i64
  %7 = call noundef i32 @_ZN14CompressedOops5shiftEv()
  %8 = zext i32 %7 to i64
  %9 = shl i64 %6, %8
  %10 = add i64 %4, %9
  %11 = call noundef ptr @_Z11cast_to_oopImEP7oopDescT_(i64 noundef %10)
  ret ptr %11
}

; Function Attrs: mustprogress nounwind uwtable
define linkonce_odr hidden noundef ptr @_ZN14CompressedOops15decode_not_nullE9narrowOop(i32 noundef %0) #1 comdat align 2 {
  %2 = alloca i32, align 4
  %3 = alloca ptr, align 8
  store i32 %0, ptr %2, align 4
  %4 = load i32, ptr %2, align 4
  %5 = call noundef ptr @_ZN14CompressedOops10decode_rawE9narrowOop(i32 noundef %4)
  store ptr %5, ptr %3, align 8
  %6 = load ptr, ptr %3, align 8
  ret ptr %6
}

; Function Attrs: mustprogress nounwind uwtable
define linkonce_odr hidden noundef zeroext i1 @_ZN14CompressedOops7is_nullE9narrowOop(i32 noundef %0) #1 comdat align 2 {
  %2 = alloca i32, align 4
  store i32 %0, ptr %2, align 4
  %3 = load i32, ptr %2, align 4
  %4 = icmp eq i32 %3, 0
  ret i1 %4
}

; Function Attrs: mustprogress nounwind uwtable
define linkonce_odr hidden noundef ptr @_ZN14CompressedOops6decodeE9narrowOop(i32 noundef %0) #1 comdat align 2 {
  %2 = alloca i32, align 4
  store i32 %0, ptr %2, align 4
  %3 = load i32, ptr %2, align 4
  %4 = call noundef zeroext i1 @_ZN14CompressedOops7is_nullE9narrowOop(i32 noundef %3)
  br i1 %4, label %5, label %6

5:                                                ; preds = %1
  br label %9

6:                                                ; preds = %1
  %7 = load i32, ptr %2, align 4
  %8 = call noundef ptr @_ZN14CompressedOops15decode_not_nullE9narrowOop(i32 noundef %7)
  br label %9

9:                                                ; preds = %6, %5
  %10 = phi ptr [ null, %5 ], [ %8, %6 ]
  ret ptr %10
}

; Function Attrs: mustprogress nounwind uwtable
define linkonce_odr hidden noundef ptr @_ZN16RawAccessBarrierILm68EE15decode_internalILm68EP7oopDescEENSt9enable_ifIXntsr14AccessInternal24MustConvertCompressedOopIXT_ET0_EE5valueES5_E4typeES5_(ptr noundef %0) #1 comdat align 2 {
  %2 = alloca ptr, align 8
  store ptr %0, ptr %2, align 8
  %3 = load ptr, ptr %2, align 8
  ret ptr %3
}

; Function Attrs: mustprogress nounwind uwtable
define linkonce_odr hidden noundef ptr @_ZN16RawAccessBarrierILm68EE13load_internalILm68EP7oopDescEENSt9enable_ifIXsr12HasDecoratorIXT_EL_ZL12MO_UNORDEREDEEE5valueET0_E4typeEPv(ptr noundef %0) #1 comdat align 2 {
  %2 = alloca ptr, align 8
  store ptr %0, ptr %2, align 8
  %3 = load ptr, ptr %2, align 8
  %4 = load ptr, ptr %3, align 8
  ret ptr %4
}

; Function Attrs: mustprogress nounwind uwtable
define linkonce_odr hidden noundef ptr @_ZN16RawAccessBarrierILm102EE15decode_internalILm102EP7oopDescEENSt9enable_ifIXsr14AccessInternal24MustConvertCompressedOopIXT_ET0_EE5valueES5_E4typeEN11HeapOopTypeIXT_EE4typeE(i32 noundef %0) #1 comdat align 2 {
  %2 = alloca i32, align 4
  store i32 %0, ptr %2, align 4
  %3 = load i32, ptr %2, align 4
  %4 = call noundef ptr @_ZN14CompressedOops6decodeE9narrowOop(i32 noundef %3)
  ret ptr %4
}

; Function Attrs: mustprogress nounwind uwtable
define linkonce_odr hidden noundef i32 @_ZN16RawAccessBarrierILm102EE13load_internalILm102E9narrowOopEENSt9enable_ifIXsr12HasDecoratorIXT_EL_ZL12MO_UNORDEREDEEE5valueET0_E4typeEPv(ptr noundef %0) #1 comdat align 2 {
  %2 = alloca ptr, align 8
  store ptr %0, ptr %2, align 8
  %3 = load ptr, ptr %2, align 8
  %4 = load i32, ptr %3, align 4
  ret i32 %4
}

; Function Attrs: mustprogress nounwind uwtable
define linkonce_odr hidden noundef ptr @_ZN16RawAccessBarrierILm68EE6decodeIP7oopDescEET_N14AccessInternal11EncodedTypeILm68ES4_E4typeE(ptr noundef %0) #1 comdat align 2 {
  %2 = alloca ptr, align 8
  store ptr %0, ptr %2, align 8
  %3 = load ptr, ptr %2, align 8
  %4 = call noundef ptr @_ZN16RawAccessBarrierILm68EE15decode_internalILm68EP7oopDescEENSt9enable_ifIXntsr14AccessInternal24MustConvertCompressedOopIXT_ET0_EE5valueES5_E4typeES5_(ptr noundef %3)
  ret ptr %4
}

; Function Attrs: mustprogress nounwind uwtable
define linkonce_odr hidden noundef ptr @_ZN16RawAccessBarrierILm68EE4loadIP7oopDescEET_Pv(ptr noundef %0) #1 comdat align 2 {
  %2 = alloca ptr, align 8
  store ptr %0, ptr %2, align 8
  %3 = load ptr, ptr %2, align 8
  %4 = call noundef ptr @_ZN16RawAccessBarrierILm68EE13load_internalILm68EP7oopDescEENSt9enable_ifIXsr12HasDecoratorIXT_EL_ZL12MO_UNORDEREDEEE5valueET0_E4typeEPv(ptr noundef %3)
  ret ptr %4
}

; Function Attrs: mustprogress nounwind uwtable
define linkonce_odr hidden noundef ptr @_ZN16RawAccessBarrierILm102EE6decodeIP7oopDescEET_N14AccessInternal11EncodedTypeILm102ES4_E4typeE(i32 noundef %0) #1 comdat align 2 {
  %2 = alloca i32, align 4
  store i32 %0, ptr %2, align 4
  %3 = load i32, ptr %2, align 4
  %4 = call noundef ptr @_ZN16RawAccessBarrierILm102EE15decode_internalILm102EP7oopDescEENSt9enable_ifIXsr14AccessInternal24MustConvertCompressedOopIXT_ET0_EE5valueES5_E4typeEN11HeapOopTypeIXT_EE4typeE(i32 noundef %3)
  ret ptr %4
}

; Function Attrs: mustprogress nounwind uwtable
define linkonce_odr hidden noundef i32 @_ZN16RawAccessBarrierILm102EE4loadI9narrowOopEET_Pv(ptr noundef %0) #1 comdat align 2 {
  %2 = alloca ptr, align 8
  store ptr %0, ptr %2, align 8
  %3 = load ptr, ptr %2, align 8
  %4 = call noundef i32 @_ZN16RawAccessBarrierILm102EE13load_internalILm102E9narrowOopEENSt9enable_ifIXsr12HasDecoratorIXT_EL_ZL12MO_UNORDEREDEEE5valueET0_E4typeEPv(ptr noundef %3)
  ret i32 %4
}

; Function Attrs: mustprogress nounwind uwtable
define linkonce_odr hidden noundef ptr @_ZN16RawAccessBarrierILm68EE8oop_loadIP7oopDescEET_Pv(ptr noundef %0) #1 comdat align 2 {
  %2 = alloca ptr, align 8
  %3 = alloca ptr, align 8
  store ptr %0, ptr %2, align 8
  %4 = load ptr, ptr %2, align 8
  %5 = call noundef ptr @_ZN16RawAccessBarrierILm68EE4loadIP7oopDescEET_Pv(ptr noundef %4)
  store ptr %5, ptr %3, align 8
  %6 = load ptr, ptr %3, align 8
  %7 = call noundef ptr @_ZN16RawAccessBarrierILm68EE6decodeIP7oopDescEET_N14AccessInternal11EncodedTypeILm68ES4_E4typeE(ptr noundef %6)
  ret ptr %7
}

; Function Attrs: mustprogress nounwind uwtable
define linkonce_odr hidden noundef ptr @_ZN16RawAccessBarrierILm102EE8oop_loadIP7oopDescEET_Pv(ptr noundef %0) #1 comdat align 2 {
  %2 = alloca ptr, align 8
  %3 = alloca i32, align 4
  store ptr %0, ptr %2, align 8
  %4 = load ptr, ptr %2, align 8
  %5 = call noundef i32 @_ZN16RawAccessBarrierILm102EE4loadI9narrowOopEET_Pv(ptr noundef %4)
  store i32 %5, ptr %3, align 4
  %6 = load i32, ptr %3, align 4
  %7 = call noundef ptr @_ZN16RawAccessBarrierILm102EE6decodeIP7oopDescEET_N14AccessInternal11EncodedTypeILm102ES4_E4typeE(i32 noundef %6)
  ret ptr %7
}

; Function Attrs: mustprogress nounwind uwtable
define linkonce_odr hidden noundef ptr @_ZN14AccessInternal18PreRuntimeDispatch4loadILm288836EP7oopDescEENSt9enable_ifIXaasr12HasDecoratorIXT_EL_ZL6AS_RAWEEE5valuesr14CanHardwireRawIXT_EEE5valueET0_E4typeEPv(ptr noundef %0) #1 comdat align 2 {
  %2 = alloca ptr, align 8
  store ptr %0, ptr %2, align 8
  %3 = load ptr, ptr %2, align 8
  %4 = call noundef ptr @_ZN16RawAccessBarrierILm68EE8oop_loadIP7oopDescEET_Pv(ptr noundef %3)
  ret ptr %4
}

; Function Attrs: mustprogress nounwind uwtable
define linkonce_odr hidden noundef ptr @_ZN14AccessInternal18PreRuntimeDispatch4loadILm288870EP7oopDescEENSt9enable_ifIXaasr12HasDecoratorIXT_EL_ZL6AS_RAWEEE5valuesr14CanHardwireRawIXT_EEE5valueET0_E4typeEPv(ptr noundef %0) #1 comdat align 2 {
  %2 = alloca ptr, align 8
  store ptr %0, ptr %2, align 8
  %3 = load ptr, ptr %2, align 8
  %4 = call noundef ptr @_ZN16RawAccessBarrierILm102EE8oop_loadIP7oopDescEET_Pv(ptr noundef %3)
  ret ptr %4
}

; Function Attrs: mustprogress nounwind uwtable
define linkonce_odr hidden noundef ptr @_ZN14AccessInternal18PreRuntimeDispatch4loadILm288838EP7oopDescEENSt9enable_ifIXaasr12HasDecoratorIXT_EL_ZL6AS_RAWEEE5valuentsr14CanHardwireRawIXT_EEE5valueET0_E4typeEPv(ptr noundef %0) #1 comdat align 2 {
  %2 = alloca ptr, align 8
  %3 = alloca ptr, align 8
  %4 = alloca i64, align 8
  %5 = alloca i64, align 8
  store ptr %0, ptr %3, align 8
  %6 = load i8, ptr @UseCompressedOops, align 1
  %7 = trunc i8 %6 to i1
  br i1 %7, label %8, label %11

8:                                                ; preds = %1
  store i64 288870, ptr %4, align 8
  %9 = load ptr, ptr %3, align 8
  %10 = call noundef ptr @_ZN14AccessInternal18PreRuntimeDispatch4loadILm288870EP7oopDescEENSt9enable_ifIXaasr12HasDecoratorIXT_EL_ZL6AS_RAWEEE5valuesr14CanHardwireRawIXT_EEE5valueET0_E4typeEPv(ptr noundef %9)
  store ptr %10, ptr %2, align 8
  br label %14

11:                                               ; preds = %1
  store i64 288836, ptr %5, align 8
  %12 = load ptr, ptr %3, align 8
  %13 = call noundef ptr @_ZN14AccessInternal18PreRuntimeDispatch4loadILm288836EP7oopDescEENSt9enable_ifIXaasr12HasDecoratorIXT_EL_ZL6AS_RAWEEE5valuesr14CanHardwireRawIXT_EEE5valueET0_E4typeEPv(ptr noundef %12)
  store ptr %13, ptr %2, align 8
  br label %14

14:                                               ; preds = %11, %8
  %15 = load ptr, ptr %2, align 8
  ret ptr %15
}

; Function Attrs: mustprogress nounwind uwtable
define linkonce_odr hidden noundef ptr @_ZN14AccessInternal10field_addrEP7oopDescl(ptr noundef %0, i64 noundef %1) #1 comdat {
  %3 = alloca ptr, align 8
  %4 = alloca i64, align 8
  store ptr %0, ptr %3, align 8
  store i64 %1, ptr %4, align 8
  %5 = load ptr, ptr %3, align 8
  %6 = ptrtoint ptr %5 to i64
  %7 = load i64, ptr %4, align 8
  %8 = add nsw i64 %6, %7
  %9 = inttoptr i64 %8 to ptr
  ret ptr %9
}

; Function Attrs: mustprogress nounwind uwtable
define linkonce_odr hidden noundef ptr @_ZN14AccessInternal15RuntimeDispatchILm286790EP7oopDescLNS_11BarrierTypeE3EE7load_atES2_l(ptr noundef %0, i64 noundef %1) #1 comdat align 2 {
  %3 = alloca ptr, align 8
  %4 = alloca i64, align 8
  store ptr %0, ptr %3, align 8
  store i64 %1, ptr %4, align 8
  %5 = load ptr, ptr @_ZN14AccessInternal15RuntimeDispatchILm286790EP7oopDescLNS_11BarrierTypeE3EE13_load_at_funcE, align 8
  %6 = load ptr, ptr %3, align 8
  %7 = load i64, ptr %4, align 8
  %8 = call noundef ptr %5(ptr noundef %6, i64 noundef %7)
  ret ptr %8
}

; Function Attrs: mustprogress nounwind uwtable
define linkonce_odr hidden noundef ptr @_ZN14AccessInternal18PreRuntimeDispatch7load_atILm288838EP7oopDescEENSt9enable_ifIXsr12HasDecoratorIXT_EL_ZL6AS_RAWEEE5valueET0_E4typeES3_l(ptr noundef %0, i64 noundef %1) #1 comdat align 2 {
  %3 = alloca ptr, align 8
  %4 = alloca i64, align 8
  store ptr %0, ptr %3, align 8
  store i64 %1, ptr %4, align 8
  %5 = load ptr, ptr %3, align 8
  %6 = load i64, ptr %4, align 8
  %7 = call noundef ptr @_ZN14AccessInternal10field_addrEP7oopDescl(ptr noundef %5, i64 noundef %6)
  %8 = call noundef ptr @_ZN14AccessInternal18PreRuntimeDispatch4loadILm288838EP7oopDescEENSt9enable_ifIXaasr12HasDecoratorIXT_EL_ZL6AS_RAWEEE5valuentsr14CanHardwireRawIXT_EEE5valueET0_E4typeEPv(ptr noundef %7)
  ret ptr %8
}

; Function Attrs: mustprogress nounwind uwtable
define linkonce_odr hidden noundef zeroext i1 @_ZN14AccessInternal18PreRuntimeDispatch22is_hardwired_primitiveILm286790EEEbv() #1 comdat align 2 {
  ret i1 false
}

; Function Attrs: mustprogress nounwind uwtable
define linkonce_odr hidden noundef ptr @_ZN14AccessInternal18PreRuntimeDispatch7load_atILm286790EP7oopDescEENSt9enable_ifIXntsr12HasDecoratorIXT_EL_ZL6AS_RAWEEE5valueET0_E4typeES3_l(ptr noundef %0, i64 noundef %1) #1 comdat align 2 {
  %3 = alloca ptr, align 8
  %4 = alloca ptr, align 8
  %5 = alloca i64, align 8
  %6 = alloca i64, align 8
  store ptr %0, ptr %4, align 8
  store i64 %1, ptr %5, align 8
  %7 = call noundef zeroext i1 @_ZN14AccessInternal18PreRuntimeDispatch22is_hardwired_primitiveILm286790EEEbv()
  br i1 %7, label %8, label %12

8:                                                ; preds = %2
  store i64 288838, ptr %6, align 8
  %9 = load ptr, ptr %4, align 8
  %10 = load i64, ptr %5, align 8
  %11 = call noundef ptr @_ZN14AccessInternal18PreRuntimeDispatch7load_atILm288838EP7oopDescEENSt9enable_ifIXsr12HasDecoratorIXT_EL_ZL6AS_RAWEEE5valueET0_E4typeES3_l(ptr noundef %9, i64 noundef %10)
  store ptr %11, ptr %3, align 8
  br label %16

12:                                               ; preds = %2
  %13 = load ptr, ptr %4, align 8
  %14 = load i64, ptr %5, align 8
  %15 = call noundef ptr @_ZN14AccessInternal15RuntimeDispatchILm286790EP7oopDescLNS_11BarrierTypeE3EE7load_atES2_l(ptr noundef %13, i64 noundef %14)
  store ptr %15, ptr %3, align 8
  br label %16

16:                                               ; preds = %12, %8
  %17 = load ptr, ptr %3, align 8
  ret ptr %17
}

; Function Attrs: mustprogress nounwind uwtable
define internal void @_ZN14AccessInternalL12verify_typesILm262148EP7oopDescEEvv() #1 {
  ret void
}

; Function Attrs: mustprogress nounwind uwtable
define linkonce_odr hidden void @_ZN6AccessILm262144EE17verify_decoratorsILm15203776EEEvv() #1 comdat align 2 {
  %1 = alloca i64, align 8
  %2 = alloca i64, align 8
  %3 = alloca i64, align 8
  %4 = alloca i64, align 8
  store i64 0, ptr %1, align 8
  store i64 0, ptr %2, align 8
  store i64 0, ptr %3, align 8
  store i64 262144, ptr %4, align 8
  ret void
}

; Function Attrs: mustprogress nounwind uwtable
define linkonce_odr hidden noundef i64 @_Z13cast_from_oopIlET_P7oopDesc(ptr noundef %0) #1 comdat {
  %2 = alloca ptr, align 8
  store ptr %0, ptr %2, align 8
  %3 = load ptr, ptr %2, align 8
  %4 = ptrtoint ptr %3 to i64
  ret i64 %4
}

; Function Attrs: mustprogress nounwind uwtable
define linkonce_odr hidden noundef ptr @_ZN14AccessInternal7load_atILm262148EP7oopDescEET0_S2_l(ptr noundef %0, i64 noundef %1) #1 comdat {
  %3 = alloca ptr, align 8
  %4 = alloca i64, align 8
  %5 = alloca i64, align 8
  store ptr %0, ptr %3, align 8
  store i64 %1, ptr %4, align 8
  call void @_ZN14AccessInternalL12verify_typesILm262148EP7oopDescEEvv()
  store i64 286790, ptr %5, align 8
  %6 = load ptr, ptr %3, align 8
  %7 = load i64, ptr %4, align 8
  %8 = call noundef ptr @_ZN14AccessInternal18PreRuntimeDispatch7load_atILm286790EP7oopDescEENSt9enable_ifIXntsr12HasDecoratorIXT_EL_ZL6AS_RAWEEE5valueET0_E4typeES3_l(ptr noundef %6, i64 noundef %7)
  ret ptr %8
}

; Function Attrs: mustprogress nounwind uwtable
define linkonce_odr hidden void @_ZN14AccessInternal14OopLoadAtProxyILm262144EEC2EP7oopDescl(ptr noundef nonnull align 8 dereferenceable(16) %0, ptr noundef %1, i64 noundef %2) unnamed_addr #1 comdat align 2 {
  %4 = alloca ptr, align 8
  %5 = alloca ptr, align 8
  %6 = alloca i64, align 8
  store ptr %0, ptr %4, align 8
  store ptr %1, ptr %5, align 8
  store i64 %2, ptr %6, align 8
  %7 = load ptr, ptr %4, align 8
  %8 = getelementptr inbounds %"class.AccessInternal::OopLoadAtProxy", ptr %7, i32 0, i32 0
  %9 = load ptr, ptr %5, align 8
  store ptr %9, ptr %8, align 8
  %10 = getelementptr inbounds %"class.AccessInternal::OopLoadAtProxy", ptr %7, i32 0, i32 1
  %11 = load i64, ptr %6, align 8
  store i64 %11, ptr %10, align 8
  ret void
}

; Function Attrs: mustprogress nounwind uwtable
define linkonce_odr hidden void @_ZN6AccessILm262144EE26verify_heap_oop_decoratorsILm1472EEEvv() #1 comdat align 2 {
  %1 = alloca i64, align 8
  store i64 15202304, ptr %1, align 8
  call void @_ZN6AccessILm262144EE17verify_decoratorsILm15203776EEEvv()
  ret void
}

; Function Attrs: mustprogress nounwind uwtable
define linkonce_odr hidden noundef ptr @_ZNK7oopDesc10field_addrIiEEPT_i(ptr noundef nonnull align 8 dereferenceable(16) %0, i32 noundef %1) #1 comdat align 2 {
  %3 = alloca ptr, align 8
  %4 = alloca i32, align 4
  store ptr %0, ptr %3, align 8
  store i32 %1, ptr %4, align 4
  %5 = load ptr, ptr %3, align 8
  %6 = call noundef ptr @_ZNK7oopDesc6as_oopEv(ptr noundef nonnull align 8 dereferenceable(16) %5)
  %7 = call noundef i64 @_Z13cast_from_oopIlET_P7oopDesc(ptr noundef %6)
  %8 = load i32, ptr %4, align 4
  %9 = sext i32 %8 to i64
  %10 = add nsw i64 %7, %9
  %11 = inttoptr i64 %10 to ptr
  ret ptr %11
}

; Function Attrs: mustprogress nounwind uwtable
define linkonce_odr hidden noundef ptr @_ZNK14AccessInternal14OopLoadAtProxyILm262144EEcvP7oopDescEv(ptr noundef nonnull align 8 dereferenceable(16) %0) #1 comdat align 2 {
  %2 = alloca ptr, align 8
  store ptr %0, ptr %2, align 8
  %3 = load ptr, ptr %2, align 8
  %4 = getelementptr inbounds %"class.AccessInternal::OopLoadAtProxy", ptr %3, i32 0, i32 0
  %5 = load ptr, ptr %4, align 8
  %6 = getelementptr inbounds %"class.AccessInternal::OopLoadAtProxy", ptr %3, i32 0, i32 1
  %7 = load i64, ptr %6, align 8
  %8 = call noundef ptr @_ZN14AccessInternal7load_atILm262148EP7oopDescEET0_S2_l(ptr noundef %5, i64 noundef %7)
  ret ptr %8
}

; Function Attrs: mustprogress nounwind uwtable
define linkonce_odr hidden { ptr, i64 } @_ZN6AccessILm262144EE11oop_load_atEP7oopDescl(ptr noundef %0, i64 noundef %1) #1 comdat align 2 {
  %3 = alloca %"class.AccessInternal::OopLoadAtProxy", align 8
  %4 = alloca ptr, align 8
  %5 = alloca i64, align 8
  store ptr %0, ptr %4, align 8
  store i64 %1, ptr %5, align 8
  call void @_ZN6AccessILm262144EE26verify_heap_oop_decoratorsILm1472EEEvv()
  %6 = load ptr, ptr %4, align 8
  %7 = load i64, ptr %5, align 8
  call void @_ZN14AccessInternal14OopLoadAtProxyILm262144EEC2EP7oopDescl(ptr noundef nonnull align 8 dereferenceable(16) %3, ptr noundef %6, i64 noundef %7)
  %8 = load { ptr, i64 }, ptr %3, align 8
  ret { ptr, i64 } %8
}

; Function Attrs: mustprogress nounwind uwtable
define linkonce_odr hidden noundef ptr @_ZNK7oopDesc6as_oopEv(ptr noundef nonnull align 8 dereferenceable(16) %0) #1 comdat align 2 {
  %2 = alloca ptr, align 8
  store ptr %0, ptr %2, align 8
  %3 = load ptr, ptr %2, align 8
  ret ptr %3
}

; Function Attrs: mustprogress nounwind uwtable
define linkonce_odr hidden noundef i32 @_ZNK7oopDesc9int_fieldEi(ptr noundef nonnull align 8 dereferenceable(16) %0, i32 noundef %1) #1 comdat align 2 {
  %3 = alloca ptr, align 8
  %4 = alloca i32, align 4
  store ptr %0, ptr %3, align 8
  store i32 %1, ptr %4, align 4
  %5 = load ptr, ptr %3, align 8
  %6 = load i32, ptr %4, align 4
  %7 = call noundef ptr @_ZNK7oopDesc10field_addrIiEEPT_i(ptr noundef nonnull align 8 dereferenceable(16) %5, i32 noundef %6)
  %8 = load i32, ptr %7, align 4
  ret i32 %8
}

; Function Attrs: mustprogress nounwind uwtable
define linkonce_odr hidden noundef ptr @_ZNK7oopDesc9obj_fieldEi(ptr noundef nonnull align 8 dereferenceable(16) %0, i32 noundef %1) #1 comdat align 2 {
  %3 = alloca ptr, align 8
  %4 = alloca i32, align 4
  %5 = alloca %"class.AccessInternal::OopLoadAtProxy", align 8
  store ptr %0, ptr %3, align 8
  store i32 %1, ptr %4, align 4
  %6 = load ptr, ptr %3, align 8
  %7 = call noundef ptr @_ZNK7oopDesc6as_oopEv(ptr noundef nonnull align 8 dereferenceable(16) %6)
  %8 = load i32, ptr %4, align 4
  %9 = sext i32 %8 to i64
  %10 = call { ptr, i64 } @_ZN6AccessILm262144EE11oop_load_atEP7oopDescl(ptr noundef %7, i64 noundef %9)
  %11 = getelementptr inbounds { ptr, i64 }, ptr %5, i32 0, i32 0
  %12 = extractvalue { ptr, i64 } %10, 0
  store ptr %12, ptr %11, align 8
  %13 = getelementptr inbounds { ptr, i64 }, ptr %5, i32 0, i32 1
  %14 = extractvalue { ptr, i64 } %10, 1
  store i64 %14, ptr %13, align 8
  %15 = call noundef ptr @_ZNK14AccessInternal14OopLoadAtProxyILm262144EEcvP7oopDescEv(ptr noundef nonnull align 8 dereferenceable(16) %5)
  ret ptr %15
}

; Function Attrs: mustprogress nounwind uwtable
define hidden noundef i32 @_ZN28java_lang_Thread_FieldHolder17get_thread_statusEP7oopDesc(ptr noundef %0) #1 align 2 {
  %2 = alloca ptr, align 8
  store ptr %0, ptr %2, align 8
  %3 = load ptr, ptr %2, align 8
  %4 = load i32, ptr @_ZN28java_lang_Thread_FieldHolder21_thread_status_offsetE, align 4
  %5 = call noundef i32 @_ZNK7oopDesc9int_fieldEi(ptr noundef nonnull align 8 dereferenceable(16) %3, i32 noundef %4)
  ret i32 %5
}

; Function Attrs: mustprogress nounwind uwtable
define hidden noundef ptr @_ZN16java_lang_Thread6holderEP7oopDesc(ptr noundef %0) #1 align 2 {
  %2 = alloca ptr, align 8
  store ptr %0, ptr %2, align 8
  %3 = load ptr, ptr %2, align 8
  %4 = load i32, ptr @_ZN16java_lang_Thread14_holder_offsetE, align 4
  %5 = call noundef ptr @_ZNK7oopDesc9obj_fieldEi(ptr noundef nonnull align 8 dereferenceable(16) %3, i32 noundef %4)
  ret ptr %5
}

; Function Attrs: mustprogress nounwind uwtable
define hidden noundef i32 @_ZN16java_lang_Thread17get_thread_statusEP7oopDesc(ptr noundef %0) #1 align 2 {
  %2 = alloca i32, align 4
  %3 = alloca ptr, align 8
  %4 = alloca ptr, align 8
  store ptr %0, ptr %3, align 8
  %5 = load ptr, ptr %3, align 8
  %6 = call noundef ptr @_ZN16java_lang_Thread6holderEP7oopDesc(ptr noundef %5)
  store ptr %6, ptr %4, align 8
  %7 = load ptr, ptr %4, align 8
  %8 = icmp ne ptr %7, null
  br i1 %8, label %9, label %12

9:                                                ; preds = %1
  %10 = load ptr, ptr %4, align 8
  %11 = call noundef i32 @_ZN28java_lang_Thread_FieldHolder17get_thread_statusEP7oopDesc(ptr noundef %10)
  store i32 %11, ptr %2, align 4
  br label %13

12:                                               ; preds = %1
  store i32 0, ptr %2, align 4
  br label %13

13:                                               ; preds = %12, %9
  %14 = load i32, ptr %2, align 4
  ret i32 %14
}