; Function Attrs: mustprogress nounwind uwtable
define hidden noundef i32 @_ZN16java_lang_Thread17get_thread_statusEP7oopDesc(ptr noundef %0) local_unnamed_addr #0 align 2 {
  %2 = load i32, ptr @_ZN16java_lang_Thread14_holder_offsetE, align 4
  %3 = sext i32 %2 to i64
  %4 = load ptr, ptr @_ZN14AccessInternal15RuntimeDispatchILm286790EP7oopDescLNS_11BarrierTypeE3EE13_load_at_funcE, align 8
  %5 = tail call noundef ptr %4(ptr noundef nonnull %0, i64 noundef %3) #19
  %.not = icmp eq ptr %5, null
  br i1 %.not, label %13, label %6

6:                                                ; preds = %1
  %7 = load i32, ptr @_ZN28java_lang_Thread_FieldHolder21_thread_status_offsetE, align 4
  %8 = ptrtoint ptr %5 to i64
  %9 = sext i32 %7 to i64
  %10 = add nsw i64 %9, %8
  %11 = inttoptr i64 %10 to ptr
  %12 = load i32, ptr %11, align 4
  br label %13

13:                                               ; preds = %1, %6
  %.0 = phi i32 [ %12, %6 ], [ 0, %1 ]
  ret i32 %.0
}